target datalayout = "e-m:e-p270:32:32-p271:32:32-p272:64:64-i64:64-i128:128-f80:128-n8:16:32:64-S128"
target triple = "x86_64-pc-linux-gnu"

@hf_nfs4_fh_pd_share = internal global i32 0, align 4
@hf_nfs4_fh_pd_flags = internal global i32 0, align 4
@hf_nfs4_fh_pd_sites = internal global i32 0, align 4
@hf_nfs4_fh_pd_spaces = internal global i32 0, align 4
@hf_nfs4_fh_pd_container = internal global i32 0, align 4
@hf_nfs4_fh_pd_inum = internal global i32 0, align 4
@ett_nfs4_fh_pd_flags = internal global i32 0, align 4
@ett_nfs4_fh_pd_sites = internal global i32 0, align 4
@ett_nfs4_fh_pd_spaces = internal global i32 0, align 4
@dissect_fhandle_data_PRIMARY_DATA.fh_flags = internal constant [3 x ptr] [ptr @hf_nfs4_fh_pd_flags_version, ptr @hf_nfs4_fh_pd_flags_reserved, ptr null], align 16
@dissect_fhandle_data_PRIMARY_DATA.fh_sites = internal constant [3 x ptr] [ptr @hf_nfs4_fh_pd_sites_inum, ptr @hf_nfs4_fh_pd_sites_siteid, ptr null], align 16
@dissect_fhandle_data_PRIMARY_DATA.fh_spaces = internal constant [3 x ptr] [ptr @hf_nfs4_fh_pd_spaces_snapid, ptr @hf_nfs4_fh_pd_spaces_container, ptr null], align 16

; Function Attrs: null_pointer_is_valid sspstrong uwtable
define internal i32 @dissect_fhandle_data_PRIMARY_DATA(ptr noundef %0, ptr noundef %1, ptr noundef %2, ptr noundef %3) #0 {
  %5 = alloca i32, align 4
  %6 = alloca ptr, align 8
  %7 = alloca ptr, align 8
  %8 = alloca ptr, align 8
  %9 = alloca ptr, align 8
  %10 = alloca i32, align 4
  %11 = alloca i32, align 4
  %12 = alloca i32, align 4
  store ptr %0, ptr %6, align 8
  store ptr %1, ptr %7, align 8
  store ptr %2, ptr %8, align 8
  store ptr %3, ptr %9, align 8
  call void @llvm.lifetime.start.p0(i64 4, ptr %10) #16
  store i32 0, ptr %10, align 4
  call void @llvm.lifetime.start.p0(i64 4, ptr %11) #16
  %13 = load ptr, ptr %8, align 8
  %14 = icmp ne ptr %13, null
  br i1 %14, label %18, label %15

15:                                               ; preds = %4
  %16 = load ptr, ptr %6, align 8
  %17 = call i32 @tvb_captured_length(ptr noundef %16)
  store i32 %17, ptr %5, align 4
  store i32 1, ptr %12, align 4
  br label %89

18:                                               ; preds = %4
  %19 = load ptr, ptr %6, align 8
  %20 = load i32, ptr %10, align 4
  %21 = add i32 %20, 4
  %22 = call i32 @tvb_get_letohl(ptr noundef %19, i32 noundef %21)
  %23 = and i32 %22, -268435456
  %24 = lshr i32 %23, 28
  store i32 %24, ptr %11, align 4
  %25 = load i32, ptr %11, align 4
  %26 = icmp ugt i32 %25, 2
  br i1 %26, label %27, label %28

27:                                               ; preds = %18
  store i32 0, ptr %5, align 4
  store i32 1, ptr %12, align 4
  br label %89

28:                                               ; preds = %18
  %29 = load ptr, ptr %8, align 8
  %30 = load i32, ptr @hf_nfs4_fh_pd_share, align 4
  %31 = load ptr, ptr %6, align 8
  %32 = load i32, ptr %10, align 4
  %33 = call ptr @proto_tree_add_item(ptr noundef %29, i32 noundef %30, ptr noundef %31, i32 noundef %32, i32 noundef 4, i32 noundef -2147483648)
  %34 = load ptr, ptr %8, align 8
  %35 = load ptr, ptr %6, align 8
  %36 = load i32, ptr %10, align 4
  %37 = add i32 %36, 4
  %38 = load i32, ptr @hf_nfs4_fh_pd_flags, align 4
  %39 = load i32, ptr @ett_nfs4_fh_pd_flags, align 4
  %40 = call ptr @proto_tree_add_bitmask(ptr noundef %34, ptr noundef %35, i32 noundef %37, i32 noundef %38, i32 noundef %39, ptr noundef @dissect_fhandle_data_PRIMARY_DATA.fh_flags, i32 noundef -2147483648)
  %41 = load i32, ptr %11, align 4
  %42 = icmp eq i32 %41, 0
  br i1 %42, label %43, label %50

43:                                               ; preds = %28
  %44 = load ptr, ptr %8, align 8
  %45 = load i32, ptr @hf_nfs4_fh_pd_inum, align 4
  %46 = load ptr, ptr %6, align 8
  %47 = load i32, ptr %10, align 4
  %48 = add i32 %47, 8
  %49 = call ptr @proto_tree_add_item(ptr noundef %44, i32 noundef %45, ptr noundef %46, i32 noundef %48, i32 noundef 8, i32 noundef -2147483648)
  br label %86

50:                                               ; preds = %28
  %51 = load i32, ptr %11, align 4
  %52 = icmp eq i32 %51, 1
  br i1 %52, label %53, label %66

53:                                               ; preds = %50
  %54 = load ptr, ptr %8, align 8
  %55 = load i32, ptr @hf_nfs4_fh_pd_container, align 4
  %56 = load ptr, ptr %6, align 8
  %57 = load i32, ptr %10, align 4
  %58 = add i32 %57, 8
  %59 = call ptr @proto_tree_add_item(ptr noundef %54, i32 noundef %55, ptr noundef %56, i32 noundef %58, i32 noundef 8, i32 noundef -2147483648)
  %60 = load ptr, ptr %8, align 8
  %61 = load i32, ptr @hf_nfs4_fh_pd_inum, align 4
  %62 = load ptr, ptr %6, align 8
  %63 = load i32, ptr %10, align 4
  %64 = add i32 %63, 16
  %65 = call ptr @proto_tree_add_item(ptr noundef %60, i32 noundef %61, ptr noundef %62, i32 noundef %64, i32 noundef 8, i32 noundef -2147483648)
  br label %85

66:                                               ; preds = %50
  %67 = load i32, ptr %11, align 4
  %68 = icmp eq i32 %67, 2
  br i1 %68, label %69, label %84

69:                                               ; preds = %66
  %70 = load ptr, ptr %8, align 8
  %71 = load ptr, ptr %6, align 8
  %72 = load i32, ptr %10, align 4
  %73 = add i32 %72, 8
  %74 = load i32, ptr @hf_nfs4_fh_pd_spaces, align 4
  %75 = load i32, ptr @ett_nfs4_fh_pd_spaces, align 4
  %76 = call ptr @proto_tree_add_bitmask(ptr noundef %70, ptr noundef %71, i32 noundef %73, i32 noundef %74, i32 noundef %75, ptr noundef @dissect_fhandle_data_PRIMARY_DATA.fh_spaces, i32 noundef -2147483648)
  %77 = load ptr, ptr %8, align 8
  %78 = load ptr, ptr %6, align 8
  %79 = load i32, ptr %10, align 4
  %80 = add i32 %79, 16
  %81 = load i32, ptr @hf_nfs4_fh_pd_sites, align 4
  %82 = load i32, ptr @ett_nfs4_fh_pd_sites, align 4
  %83 = call ptr @proto_tree_add_bitmask(ptr noundef %77, ptr noundef %78, i32 noundef %80, i32 noundef %81, i32 noundef %82, ptr noundef @dissect_fhandle_data_PRIMARY_DATA.fh_sites, i32 noundef -2147483648)
  br label %84

84:                                               ; preds = %69, %66
  br label %85

85:                                               ; preds = %84, %53
  br label %86

86:                                               ; preds = %85, %43
  %87 = load ptr, ptr %6, align 8
  %88 = call i32 @tvb_captured_length(ptr noundef %87)
  store i32 %88, ptr %5, align 4
  store i32 1, ptr %12, align 4
  br label %89

89:                                               ; preds = %86, %27, %15
  call void @llvm.lifetime.end.p0(i64 4, ptr %11) #16
  call void @llvm.lifetime.end.p0(i64 4, ptr %10) #16
  %90 = load i32, ptr %5, align 4
  ret i32 %90
}